target datalayout = "e-m:e-p270:32:32-p271:32:32-p272:64:64-i64:64-i128:128-f80:128-n8:16:32:64-S128"
target triple = "x86_64-pc-linux-gnu"

%struct.pairingheap_node = type { ptr, ptr, ptr }
%struct.pairingheap = type { ptr, ptr, ptr }
%struct.SnapshotData = type { i32, i32, i32, ptr, i32, ptr, i32, i8, i8, i8, i32, i32, ptr, i32, i32, %struct.pairingheap_node, i64 }
%struct.PGPROC = type { %struct.dlist_node, ptr, ptr, i32, %struct.Latch, i32, i32, i32, i32, %struct.anon, i32, i32, i32, i8, i8, i8, i8, %struct.proclist_node, %struct.proclist_node, ptr, ptr, i32, i32, %struct.pg_atomic_uint64, i32, i8, i64, i32, %struct.dlist_node, [16 x %struct.dlist_head], %struct.XidCacheStatus, %struct.XidCache, i8, %struct.pg_atomic_uint32, i32, i32, i8, %struct.pg_atomic_uint32, i32, i32, i64, i64, %struct.LWLock, ptr, ptr, i8, i32, ptr, %struct.dlist_head, %struct.dlist_node }
%struct.Latch = type { i32, i32, i8, i32 }
%struct.anon = type { i32, i32 }
%struct.proclist_node = type { i32, i32 }
%struct.pg_atomic_uint64 = type { i64 }
%struct.XidCacheStatus = type { i8, i8 }
%struct.XidCache = type { [64 x i32] }
%struct.pg_atomic_uint32 = type { i32 }
%struct.LWLock = type { i16, %struct.pg_atomic_uint32, %struct.proclist_head }
%struct.proclist_head = type { i32, i32 }
%struct.dlist_head = type { %struct.dlist_node }
%struct.dlist_node = type { ptr, ptr }
%struct.ActiveSnapshotElt = type { ptr, i32, ptr }
%struct.ForEachState = type { ptr, i32 }
%struct.List = type { i32, i32, i32, ptr, [0 x %union.ListCell] }
%union.ListCell = type { ptr }
%struct.ExportedSnapshot = type { ptr, ptr }

@TransactionXmin = dso_local global i32 3, align 4
@FirstSnapshotSet = dso_local global i8 0, align 1
@.str.1 = private unnamed_addr constant [10 x i8] c"snapmgr.c\00", align 1
@CurrentSnapshot = internal global ptr null, align 8
@FirstXactSnapshot = internal global ptr null, align 8
@RegisteredSnapshots = internal global %struct.pairingheap { ptr @xmin_cmp, ptr null, ptr null }, align 8
@SecondarySnapshot = internal global ptr null, align 8
@CatalogSnapshot = internal global ptr null, align 8
@ActiveSnapshot = internal global ptr null, align 8
@exportedSnapshots = internal global ptr null, align 8
@.str.5 = private unnamed_addr constant [31 x i8] c"could not unlink file \22%s\22: %m\00", align 1
@__func__.AtEOXact_Snapshot = private unnamed_addr constant [18 x i8] c"AtEOXact_Snapshot\00", align 1
@.str.6 = private unnamed_addr constant [50 x i8] c"registered snapshots seem to remain after cleanup\00", align 1
@.str.7 = private unnamed_addr constant [25 x i8] c"snapshot %p still active\00", align 1
@MyProc = external global ptr, align 8

; Function Attrs: nounwind uwtable
define internal void @SnapshotResetXmin() #0 {
  %1 = alloca ptr, align 8
  %2 = alloca i32, align 4
  %3 = alloca i32, align 4
  %4 = alloca i32, align 4
  call void @llvm.lifetime.start.p0(i64 8, ptr %1) #14
  %5 = load ptr, ptr @ActiveSnapshot, align 8
  %6 = icmp ne ptr %5, null
  br i1 %6, label %7, label %8

7:                                                ; preds = %0
  store i32 1, ptr %2, align 4
  br label %37

8:                                                ; preds = %0
  %9 = load ptr, ptr getelementptr inbounds nuw (%struct.pairingheap, ptr @RegisteredSnapshots, i32 0, i32 2), align 8
  %10 = icmp eq ptr %9, null
  br i1 %10, label %11, label %14

11:                                               ; preds = %8
  store i32 0, ptr @TransactionXmin, align 4
  %12 = load ptr, ptr @MyProc, align 8
  %13 = getelementptr inbounds nuw %struct.PGPROC, ptr %12, i32 0, i32 6
  store i32 0, ptr %13, align 8
  store i32 1, ptr %2, align 4
  br label %37

14:                                               ; preds = %8
  br label %15

15:                                               ; preds = %14
  br label %16

16:                                               ; preds = %15
  br label %17

17:                                               ; preds = %16
  store i32 1, ptr %3, align 4
  br label %18

18:                                               ; preds = %17
  br label %19

19:                                               ; preds = %18
  br label %20

20:                                               ; preds = %19
  store i32 1, ptr %4, align 4
  %21 = call ptr @pairingheap_first(ptr noundef @RegisteredSnapshots)
  %22 = getelementptr inbounds i8, ptr %21, i64 -72
  store ptr %22, ptr %1, align 8
  %23 = load ptr, ptr @MyProc, align 8
  %24 = getelementptr inbounds nuw %struct.PGPROC, ptr %23, i32 0, i32 6
  %25 = load i32, ptr %24, align 8
  %26 = load ptr, ptr %1, align 8
  %27 = getelementptr inbounds nuw %struct.SnapshotData, ptr %26, i32 0, i32 1
  %28 = load i32, ptr %27, align 4
  %29 = call zeroext i1 @TransactionIdPrecedes(i32 noundef %25, i32 noundef %28)
  br i1 %29, label %30, label %36

30:                                               ; preds = %20
  %31 = load ptr, ptr %1, align 8
  %32 = getelementptr inbounds nuw %struct.SnapshotData, ptr %31, i32 0, i32 1
  %33 = load i32, ptr %32, align 4
  store i32 %33, ptr @TransactionXmin, align 4
  %34 = load ptr, ptr @MyProc, align 8
  %35 = getelementptr inbounds nuw %struct.PGPROC, ptr %34, i32 0, i32 6
  store i32 %33, ptr %35, align 8
  br label %36

36:                                               ; preds = %30, %20
  store i32 0, ptr %2, align 4
  br label %37

37:                                               ; preds = %36, %11, %7
  call void @llvm.lifetime.end.p0(i64 8, ptr %1) #14
  %38 = load i32, ptr %2, align 4
  switch i32 %38, label %40 [
    i32 0, label %39
    i32 1, label %39
  ]

39:                                               ; preds = %37, %37
  ret void

40:                                               ; preds = %37
  unreachable
}

; Function Attrs: nounwind uwtable
define dso_local void @InvalidateCatalogSnapshot() #0 {
  %1 = load ptr, ptr @CatalogSnapshot, align 8
  %2 = icmp ne ptr %1, null
  br i1 %2, label %3, label %6

3:                                                ; preds = %0
  %4 = load ptr, ptr @CatalogSnapshot, align 8
  %5 = getelementptr inbounds nuw %struct.SnapshotData, ptr %4, i32 0, i32 15
  call void @pairingheap_remove(ptr noundef @RegisteredSnapshots, ptr noundef %5)
  store ptr null, ptr @CatalogSnapshot, align 8
  call void @SnapshotResetXmin()
  br label %6

6:                                                ; preds = %3, %0
  ret void
}

; Function Attrs: nounwind uwtable
define dso_local void @AtEOXact_Snapshot(i1 noundef zeroext %0, i1 noundef zeroext %1) #0 {
  %3 = alloca i8, align 1
  %4 = alloca i8, align 1
  %5 = alloca ptr, align 8
  %6 = alloca %struct.ForEachState, align 8
  %7 = alloca ptr, align 8
  %8 = alloca ptr, align 8
  %9 = zext i1 %0 to i8
  store i8 %9, ptr %3, align 1
  %10 = zext i1 %1 to i8
  store i8 %10, ptr %4, align 1
  %11 = load ptr, ptr @FirstXactSnapshot, align 8
  %12 = icmp ne ptr %11, null
  br i1 %12, label %13, label %16

13:                                               ; preds = %2
  %14 = load ptr, ptr @FirstXactSnapshot, align 8
  %15 = getelementptr inbounds nuw %struct.SnapshotData, ptr %14, i32 0, i32 15
  call void @pairingheap_remove(ptr noundef @RegisteredSnapshots, ptr noundef %15)
  br label %16

16:                                               ; preds = %13, %2
  store ptr null, ptr @FirstXactSnapshot, align 8
  %17 = load ptr, ptr @exportedSnapshots, align 8
  %18 = icmp ne ptr %17, null
  br i1 %18, label %19, label %82

19:                                               ; preds = %16
  call void @llvm.lifetime.start.p0(i64 8, ptr %5) #14
  call void @llvm.lifetime.start.p0(i64 16, ptr %6) #14
  %20 = getelementptr inbounds nuw %struct.ForEachState, ptr %6, i32 0, i32 0
  %21 = load ptr, ptr @exportedSnapshots, align 8
  store ptr %21, ptr %20, align 8
  %22 = getelementptr inbounds nuw %struct.ForEachState, ptr %6, i32 0, i32 1
  store i32 0, ptr %22, align 8
  %23 = getelementptr i8, ptr %6, i64 12
  call void @llvm.memset.p0.i64(ptr align 4 %23, i8 0, i64 4, i1 false)
  br label %24

24:                                               ; preds = %77, %19
  %25 = getelementptr inbounds nuw %struct.ForEachState, ptr %6, i32 0, i32 0
  %26 = load ptr, ptr %25, align 8
  %27 = icmp ne ptr %26, null
  br i1 %27, label %28, label %45

28:                                               ; preds = %24
  %29 = getelementptr inbounds nuw %struct.ForEachState, ptr %6, i32 0, i32 1
  %30 = load i32, ptr %29, align 8
  %31 = getelementptr inbounds nuw %struct.ForEachState, ptr %6, i32 0, i32 0
  %32 = load ptr, ptr %31, align 8
  %33 = getelementptr inbounds nuw %struct.List, ptr %32, i32 0, i32 1
  %34 = load i32, ptr %33, align 4
  %35 = icmp slt i32 %30, %34
  br i1 %35, label %36, label %45

36:                                               ; preds = %28
  %37 = getelementptr inbounds nuw %struct.ForEachState, ptr %6, i32 0, i32 0
  %38 = load ptr, ptr %37, align 8
  %39 = getelementptr inbounds nuw %struct.List, ptr %38, i32 0, i32 3
  %40 = load ptr, ptr %39, align 8
  %41 = getelementptr inbounds nuw %struct.ForEachState, ptr %6, i32 0, i32 1
  %42 = load i32, ptr %41, align 8
  %43 = sext i32 %42 to i64
  %44 = getelementptr inbounds %union.ListCell, ptr %40, i64 %43
  store ptr %44, ptr %5, align 8
  br label %46

45:                                               ; preds = %28, %24
  store ptr null, ptr %5, align 8
  br label %46

46:                                               ; preds = %45, %36
  %47 = phi i32 [ 1, %36 ], [ 0, %45 ]
  %48 = icmp ne i32 %47, 0
  br i1 %48, label %50, label %49

49:                                               ; preds = %46
  call void @llvm.lifetime.end.p0(i64 16, ptr %6) #14
  br label %81

50:                                               ; preds = %46
  call void @llvm.lifetime.start.p0(i64 8, ptr %7) #14
  %51 = load ptr, ptr %5, align 8
  %52 = load ptr, ptr %51, align 8
  store ptr %52, ptr %7, align 8
  %53 = load ptr, ptr %7, align 8
  %54 = getelementptr inbounds nuw %struct.ExportedSnapshot, ptr %53, i32 0, i32 0
  %55 = load ptr, ptr %54, align 8
  %56 = call i32 @unlink(ptr noundef %55) #14
  %57 = icmp ne i32 %56, 0
  br i1 %57, label %58, label %72

58:                                               ; preds = %50
  br label %59

59:                                               ; preds = %58
  br i1 false, label %60, label %62

60:                                               ; preds = %59
  %61 = call zeroext i1 @errstart_cold(i32 noundef 19, ptr noundef null) #13
  br i1 %61, label %64, label %69

62:                                               ; preds = %59
  %63 = call zeroext i1 @errstart(i32 noundef 19, ptr noundef null)
  br i1 %63, label %64, label %69

64:                                               ; preds = %62, %60
  %65 = load ptr, ptr %7, align 8
  %66 = getelementptr inbounds nuw %struct.ExportedSnapshot, ptr %65, i32 0, i32 0
  %67 = load ptr, ptr %66, align 8
  %68 = call i32 (ptr, ...) @errmsg_internal(ptr noundef @.str.5, ptr noundef %67)
  call void @errfinish(ptr noundef @.str.1, i32 noundef 987, ptr noundef @__func__.AtEOXact_Snapshot)
  br label %69

69:                                               ; preds = %64, %62, %60
  br label %70

70:                                               ; preds = %69
  br label %71

71:                                               ; preds = %70
  br label %72

72:                                               ; preds = %71, %50
  %73 = load ptr, ptr %7, align 8
  %74 = getelementptr inbounds nuw %struct.ExportedSnapshot, ptr %73, i32 0, i32 1
  %75 = load ptr, ptr %74, align 8
  %76 = getelementptr inbounds nuw %struct.SnapshotData, ptr %75, i32 0, i32 15
  call void @pairingheap_remove(ptr noundef @RegisteredSnapshots, ptr noundef %76)
  call void @llvm.lifetime.end.p0(i64 8, ptr %7) #14
  br label %77

77:                                               ; preds = %72
  %78 = getelementptr inbounds nuw %struct.ForEachState, ptr %6, i32 0, i32 1
  %79 = load i32, ptr %78, align 8
  %80 = add i32 %79, 1
  store i32 %80, ptr %78, align 8
  br label %24, !llvm.loop !9

81:                                               ; preds = %49
  store ptr null, ptr @exportedSnapshots, align 8
  call void @llvm.lifetime.end.p0(i64 8, ptr %5) #14
  br label %82

82:                                               ; preds = %81, %16
  call void @InvalidateCatalogSnapshot()
  %83 = load i8, ptr %3, align 1, !range !4, !noundef !5
  %84 = trunc i8 %83 to i1
  br i1 %84, label %85, label %121

85:                                               ; preds = %82
  call void @llvm.lifetime.start.p0(i64 8, ptr %8) #14
  %86 = load ptr, ptr getelementptr inbounds nuw (%struct.pairingheap, ptr @RegisteredSnapshots, i32 0, i32 2), align 8
  %87 = icmp eq ptr %86, null
  br i1 %87, label %99, label %88

88:                                               ; preds = %85
  br label %89

89:                                               ; preds = %88
  br i1 false, label %90, label %92

90:                                               ; preds = %89
  %91 = call zeroext i1 @errstart_cold(i32 noundef 19, ptr noundef null) #13
  br i1 %91, label %94, label %96

92:                                               ; preds = %89
  %93 = call zeroext i1 @errstart(i32 noundef 19, ptr noundef null)
  br i1 %93, label %94, label %96

94:                                               ; preds = %92, %90
  %95 = call i32 (ptr, ...) @errmsg_internal(ptr noundef @.str.6)
  call void @errfinish(ptr noundef @.str.1, i32 noundef 1005, ptr noundef @__func__.AtEOXact_Snapshot)
  br label %96

96:                                               ; preds = %94, %92, %90
  br label %97

97:                                               ; preds = %96
  br label %98

98:                                               ; preds = %97
  br label %99

99:                                               ; preds = %98, %85
  %100 = load ptr, ptr @ActiveSnapshot, align 8
  store ptr %100, ptr %8, align 8
  br label %101

101:                                              ; preds = %116, %99
  %102 = load ptr, ptr %8, align 8
  %103 = icmp ne ptr %102, null
  br i1 %103, label %104, label %120

104:                                              ; preds = %101
  br label %105

105:                                              ; preds = %104
  br i1 false, label %106, label %108

106:                                              ; preds = %105
  %107 = call zeroext i1 @errstart_cold(i32 noundef 19, ptr noundef null) #13
  br i1 %107, label %110, label %113

108:                                              ; preds = %105
  %109 = call zeroext i1 @errstart(i32 noundef 19, ptr noundef null)
  br i1 %109, label %110, label %113

110:                                              ; preds = %108, %106
  %111 = load ptr, ptr %8, align 8
  %112 = call i32 (ptr, ...) @errmsg_internal(ptr noundef @.str.7, ptr noundef %111)
  call void @errfinish(ptr noundef @.str.1, i32 noundef 1009, ptr noundef @__func__.AtEOXact_Snapshot)
  br label %113

113:                                              ; preds = %110, %108, %106
  br label %114

114:                                              ; preds = %113
  br label %115

115:                                              ; preds = %114
  br label %116

116:                                              ; preds = %115
  %117 = load ptr, ptr %8, align 8
  %118 = getelementptr inbounds nuw %struct.ActiveSnapshotElt, ptr %117, i32 0, i32 2
  %119 = load ptr, ptr %118, align 8
  store ptr %119, ptr %8, align 8
  br label %101, !llvm.loop !10

120:                                              ; preds = %101
  call void @llvm.lifetime.end.p0(i64 8, ptr %8) #14
  br label %121

121:                                              ; preds = %120, %82
  store ptr null, ptr @ActiveSnapshot, align 8
  store ptr null, ptr getelementptr inbounds nuw (%struct.pairingheap, ptr @RegisteredSnapshots, i32 0, i32 2), align 8
  store ptr null, ptr @CurrentSnapshot, align 8
  store ptr null, ptr @SecondarySnapshot, align 8
  store i8 0, ptr @FirstSnapshotSet, align 1
  %122 = load i8, ptr %4, align 1, !range !4, !noundef !5
  %123 = trunc i8 %122 to i1
  br i1 %123, label %124, label %125

124:                                              ; preds = %121
  call void @SnapshotResetXmin()
  br label %125

125:                                              ; preds = %124, %121
  ret void
}