; Function Attrs: nounwind uwtable
define dso_local void @AtEOXact_Snapshot(i1 noundef zeroext %0, i1 noundef zeroext %1) local_unnamed_addr #0 {
  %3 = load ptr, ptr @FirstXactSnapshot, align 8
  %.not = icmp eq ptr %3, null
  br i1 %.not, label %6, label %4

4:                                                ; preds = %2
  %5 = getelementptr inbounds nuw i8, ptr %3, i64 72
  tail call void @pairingheap_remove(ptr noundef nonnull @RegisteredSnapshots, ptr noundef nonnull %5) #18
  br label %6

6:                                                ; preds = %4, %2
  store ptr null, ptr @FirstXactSnapshot, align 8
  %7 = load ptr, ptr @exportedSnapshots, align 8
  %.not15 = icmp eq ptr %7, null
  br i1 %.not15, label %28, label %.preheader

.preheader:                                       ; preds = %6
  %8 = getelementptr inbounds nuw i8, ptr %7, i64 4
  %9 = load i32, ptr %8, align 4
  %.not1723 = icmp sgt i32 %9, 0
  br i1 %.not1723, label %.lr.ph, label %._crit_edge

.lr.ph:                                           ; preds = %.preheader
  %10 = getelementptr inbounds nuw i8, ptr %7, i64 16
  br label %11

._crit_edge:                                      ; preds = %22, %.preheader
  store ptr null, ptr @exportedSnapshots, align 8
  br label %28

11:                                               ; preds = %.lr.ph, %22
  %indvars.iv = phi i64 [ 0, %.lr.ph ], [ %indvars.iv.next, %22 ]
  %12 = load ptr, ptr %10, align 8
  %13 = getelementptr inbounds nuw %union.ListCell, ptr %12, i64 %indvars.iv
  %14 = load ptr, ptr %13, align 8
  %15 = load ptr, ptr %14, align 8
  %16 = tail call i32 @unlink(ptr noundef %15) #18
  %.not19 = icmp eq i32 %16, 0
  br i1 %.not19, label %22, label %17

17:                                               ; preds = %11
  %18 = tail call zeroext i1 @errstart(i32 noundef 19, ptr noundef null) #18
  br i1 %18, label %19, label %22

19:                                               ; preds = %17
  %20 = load ptr, ptr %14, align 8
  %21 = tail call i32 (ptr, ...) @errmsg_internal(ptr noundef nonnull @.str.5, ptr noundef %20) #18
  tail call void @errfinish(ptr noundef nonnull @.str.1, i32 noundef 987, ptr noundef nonnull @__func__.AtEOXact_Snapshot) #18
  br label %22

22:                                               ; preds = %17, %19, %11
  %23 = getelementptr inbounds nuw i8, ptr %14, i64 8
  %24 = load ptr, ptr %23, align 8
  %25 = getelementptr inbounds nuw i8, ptr %24, i64 72
  tail call void @pairingheap_remove(ptr noundef nonnull @RegisteredSnapshots, ptr noundef nonnull %25) #18
  %indvars.iv.next = add nuw nsw i64 %indvars.iv, 1
  %26 = load i32, ptr %8, align 4
  %27 = sext i32 %26 to i64
  %.not17 = icmp slt i64 %indvars.iv.next, %27
  br i1 %.not17, label %11, label %._crit_edge, !llvm.loop !9

28:                                               ; preds = %._crit_edge, %6
  %29 = load ptr, ptr @CatalogSnapshot, align 8
  %.not.i = icmp eq ptr %29, null
  br i1 %.not.i, label %InvalidateCatalogSnapshot.exit, label %30

30:                                               ; preds = %28
  %31 = getelementptr inbounds nuw i8, ptr %29, i64 72
  tail call void @pairingheap_remove(ptr noundef nonnull @RegisteredSnapshots, ptr noundef nonnull %31) #18
  store ptr null, ptr @CatalogSnapshot, align 8
  %32 = load ptr, ptr @ActiveSnapshot, align 8
  %.not.i.i = icmp eq ptr %32, null
  br i1 %.not.i.i, label %33, label %InvalidateCatalogSnapshot.exit

33:                                               ; preds = %30
  %34 = load ptr, ptr getelementptr inbounds nuw (i8, ptr @RegisteredSnapshots, i64 16), align 8
  %35 = icmp eq ptr %34, null
  br i1 %35, label %.sink.split.i.i, label %36

36:                                               ; preds = %33
  %37 = tail call ptr @pairingheap_first(ptr noundef nonnull @RegisteredSnapshots) #18
  %38 = load ptr, ptr @MyProc, align 8
  %39 = getelementptr inbounds nuw i8, ptr %38, i64 56
  %40 = load i32, ptr %39, align 8
  %41 = getelementptr inbounds i8, ptr %37, i64 -68
  %42 = load i32, ptr %41, align 4
  %43 = tail call zeroext i1 @TransactionIdPrecedes(i32 noundef %40, i32 noundef %42) #18
  br i1 %43, label %44, label %InvalidateCatalogSnapshot.exit

44:                                               ; preds = %36
  %45 = load i32, ptr %41, align 4
  br label %.sink.split.i.i

.sink.split.i.i:                                  ; preds = %44, %33
  %.sink4.i.i = phi i32 [ %45, %44 ], [ 0, %33 ]
  store i32 %.sink4.i.i, ptr @TransactionXmin, align 4
  %46 = load ptr, ptr @MyProc, align 8
  %47 = getelementptr inbounds nuw i8, ptr %46, i64 56
  store i32 %.sink4.i.i, ptr %47, align 8
  br label %InvalidateCatalogSnapshot.exit

InvalidateCatalogSnapshot.exit:                   ; preds = %28, %30, %36, %.sink.split.i.i
  br i1 %0, label %48, label %.loopexit

48:                                               ; preds = %InvalidateCatalogSnapshot.exit
  %49 = load ptr, ptr getelementptr inbounds nuw (i8, ptr @RegisteredSnapshots, i64 16), align 8
  %50 = icmp eq ptr %49, null
  br i1 %50, label %55, label %51

51:                                               ; preds = %48
  %52 = tail call zeroext i1 @errstart(i32 noundef 19, ptr noundef null) #18
  br i1 %52, label %53, label %55

53:                                               ; preds = %51
  %54 = tail call i32 (ptr, ...) @errmsg_internal(ptr noundef nonnull @.str.6) #18
  tail call void @errfinish(ptr noundef nonnull @.str.1, i32 noundef 1005, ptr noundef nonnull @__func__.AtEOXact_Snapshot) #18
  br label %55

55:                                               ; preds = %51, %53, %48
  %.025 = load ptr, ptr @ActiveSnapshot, align 8
  %.not1826 = icmp eq ptr %.025, null
  br i1 %.not1826, label %.loopexit, label %.lr.ph29

.lr.ph29:                                         ; preds = %55, %59
  %.027 = phi ptr [ %.0, %59 ], [ %.025, %55 ]
  %56 = tail call zeroext i1 @errstart(i32 noundef 19, ptr noundef null) #18
  br i1 %56, label %57, label %59

57:                                               ; preds = %.lr.ph29
  %58 = tail call i32 (ptr, ...) @errmsg_internal(ptr noundef nonnull @.str.7, ptr noundef nonnull %.027) #18
  tail call void @errfinish(ptr noundef nonnull @.str.1, i32 noundef 1009, ptr noundef nonnull @__func__.AtEOXact_Snapshot) #18
  br label %59

59:                                               ; preds = %.lr.ph29, %57
  %60 = getelementptr inbounds nuw i8, ptr %.027, i64 16
  %.0 = load ptr, ptr %60, align 8
  %.not18 = icmp eq ptr %.0, null
  br i1 %.not18, label %.loopexit, label %.lr.ph29, !llvm.loop !10

.loopexit:                                        ; preds = %59, %55, %InvalidateCatalogSnapshot.exit
  store ptr null, ptr @ActiveSnapshot, align 8
  store ptr null, ptr getelementptr inbounds nuw (i8, ptr @RegisteredSnapshots, i64 16), align 8
  store ptr null, ptr @CurrentSnapshot, align 8
  store ptr null, ptr @SecondarySnapshot, align 8
  store i8 0, ptr @FirstSnapshotSet, align 1
  br i1 %1, label %SnapshotResetXmin.exit, label %63

SnapshotResetXmin.exit:                           ; preds = %.loopexit
  store i32 0, ptr @TransactionXmin, align 4
  %61 = load ptr, ptr @MyProc, align 8
  %62 = getelementptr inbounds nuw i8, ptr %61, i64 56
  store i32 0, ptr %62, align 8
  br label %63

63:                                               ; preds = %SnapshotResetXmin.exit, %.loopexit
  ret void
}